target datalayout = "e-m:e-p270:32:32-p271:32:32-p272:64:64-i64:64-i128:128-f80:128-n8:16:32:64-S128"
target triple = "x86_64-pc-linux-gnu"

@_ZZ22uprv_isEbcdicAtSign_77E13ebcdicAtSigns = internal constant [11 x i8] c"|Df\80\AC\AE\AF\B5\EC\EF\00", align 1

; Function Attrs: mustprogress nounwind uwtable
define signext i8 @uprv_isEbcdicAtSign_77(i8 noundef signext %0) #0 {
  %2 = alloca i8, align 1
  store i8 %0, ptr %2, align 1, !tbaa !12
  %3 = load i8, ptr %2, align 1, !tbaa !12
  %4 = sext i8 %3 to i32
  %5 = icmp ne i32 %4, 0
  br i1 %5, label %6, label %11

6:                                                ; preds = %1
  %7 = load i8, ptr %2, align 1, !tbaa !12
  %8 = sext i8 %7 to i32
  %9 = call noundef ptr @strchr(ptr noundef @_ZZ22uprv_isEbcdicAtSign_77E13ebcdicAtSigns, i32 noundef %8) #8
  %10 = icmp ne ptr %9, null
  br label %11

11:                                               ; preds = %6, %1
  %12 = phi i1 [ false, %1 ], [ %10, %6 ]
  %13 = zext i1 %12 to i8
  ret i8 %13
}