; Function Attrs: mustprogress nofree nosync nounwind willreturn memory(none) uwtable
define signext range(i8 0, 2) i8 @uprv_isEbcdicAtSign_77(i8 noundef signext %0) local_unnamed_addr #5 {
  %.not = icmp eq i8 %0, 0
  br i1 %.not, label %6, label %2

2:                                                ; preds = %1
  %3 = sext i8 %0 to i32
  %memchr = tail call ptr @memchr(ptr noundef nonnull dereferenceable(1) @_ZZ22uprv_isEbcdicAtSign_77E13ebcdicAtSigns, i32 %3, i64 11)
  %4 = icmp ne ptr %memchr, null
  %5 = zext i1 %4 to i8
  br label %6

6:                                                ; preds = %2, %1
  %7 = phi i8 [ 0, %1 ], [ %5, %2 ]
  ret i8 %7
}